; Function Attrs: nounwind uwtable
define hidden i32 @drsuapi_dissect_struct_DsReplicaConnection04Ctr(ptr noundef %0, i32 noundef %1, ptr noundef %2, ptr noundef %3, ptr noundef %4, ptr noundef %5, i32 noundef %6, i32 %7) local_unnamed_addr #0 {
  %9 = getelementptr inbounds nuw i8, ptr %4, i64 28
  %10 = load i32, ptr %9, align 4
  %.not = icmp ne i32 %10, 0
  %11 = and i32 %1, 7
  %.not38 = icmp eq i32 %11, 0
  %or.cond = or i1 %.not38, %.not
  %12 = and i32 %1, -8
  %13 = add i32 %12, 8
  %.0 = select i1 %or.cond, i32 %1, i32 %13
  %.not39 = icmp eq ptr %3, null
  br i1 %.not39, label %18, label %14

14:                                               ; preds = %8
  %15 = tail call ptr @proto_tree_add_item(ptr noundef nonnull %3, i32 noundef %6, ptr noundef %0, i32 noundef %.0, i32 noundef -1, i32 noundef 0) #5
  %16 = load i32, ptr @ett_drsuapi_drsuapi_DsReplicaConnection04Ctr, align 4
  %17 = tail call ptr @proto_item_add_subtree(ptr noundef %15, i32 noundef %16) #5
  br label %18

18:                                               ; preds = %14, %8
  %.036 = phi ptr [ %15, %14 ], [ null, %8 ]
  %.035 = phi ptr [ %17, %14 ], [ null, %8 ]
  %19 = load i32, ptr @hf_drsuapi_drsuapi_DsReplicaConnection04Ctr_count, align 4
  %20 = tail call i32 @PIDL_dissect_uint32(ptr noundef %0, i32 noundef %.0, ptr noundef %2, ptr noundef %.035, ptr noundef nonnull %4, ptr noundef %5, i32 noundef %19, i32 noundef 0) #5
  %21 = load i32, ptr @hf_drsuapi_drsuapi_DsReplicaConnection04Ctr_reserved, align 4
  %22 = tail call i32 @PIDL_dissect_uint32(ptr noundef %0, i32 noundef %20, ptr noundef %2, ptr noundef %.035, ptr noundef nonnull %4, ptr noundef %5, i32 noundef %21, i32 noundef 0) #5
  %23 = tail call i32 @dissect_ndr_ucarray(ptr noundef %0, i32 noundef %22, ptr noundef %2, ptr noundef %.035, ptr noundef nonnull %4, ptr noundef %5, ptr noundef nonnull @drsuapi_dissect_element_DsReplicaConnection04Ctr_array_) #5
  %24 = sub i32 %23, %.0
  tail call void @proto_item_set_len(ptr noundef %.036, i32 noundef %24) #5
  %25 = getelementptr inbounds nuw i8, ptr %4, i64 72
  %26 = load ptr, ptr %25, align 8
  %27 = getelementptr inbounds nuw i8, ptr %26, i64 96
  %28 = load i32, ptr %27, align 8
  %29 = and i32 %28, 1
  %.not40 = icmp eq i32 %29, 0
  br i1 %.not40, label %36, label %30

30:                                               ; preds = %18
  %31 = load i32, ptr %9, align 4
  %.not41 = icmp ne i32 %31, 0
  %32 = and i32 %23, 7
  %.not42 = icmp eq i32 %32, 0
  %or.cond43 = or i1 %.not42, %.not41
  br i1 %or.cond43, label %36, label %33

33:                                               ; preds = %30
  %34 = and i32 %23, -8
  %35 = add i32 %34, 8
  br label %36

36:                                               ; preds = %30, %33, %18
  %.1 = phi i32 [ %23, %30 ], [ %35, %33 ], [ %23, %18 ]
  ret i32 %.1
}